; Function Attrs: mustprogress nofree norecurse nounwind willreturn uwtable
define i32 @prte_bp_graph_outdegree(ptr noundef readonly captures(none) %0, i32 noundef %1) local_unnamed_addr #6 {
  %3 = icmp slt i32 %1, 0
  br i1 %3, label %pmix_pointer_array_get_item.exit, label %4, !prof !63

4:                                                ; preds = %2
  %5 = getelementptr inbounds nuw i8, ptr %0, i64 136
  %6 = load i32, ptr %5, align 8, !tbaa !33
  %.not.i = icmp sgt i32 %6, %1
  br i1 %.not.i, label %7, label %pmix_pointer_array_get_item.exit, !prof !34

7:                                                ; preds = %4
  %8 = getelementptr inbounds nuw i8, ptr %0, i64 160
  %9 = load ptr, ptr %8, align 8, !tbaa !35
  %10 = zext nneg i32 %1 to i64
  %11 = getelementptr inbounds nuw ptr, ptr %9, i64 %10
  %12 = load ptr, ptr %11, align 8, !tbaa !18
  br label %pmix_pointer_array_get_item.exit

pmix_pointer_array_get_item.exit:                 ; preds = %2, %4, %7
  %.0.i = phi ptr [ %12, %7 ], [ null, %4 ], [ null, %2 ]
  %13 = getelementptr inbounds nuw i8, ptr %.0.i, i64 280
  %14 = load volatile i64, ptr %13, align 8, !tbaa !43
  %15 = trunc i64 %14 to i32
  ret i32 %15
}